target datalayout = "e-m:e-p270:32:32-p271:32:32-p272:64:64-i64:64-i128:128-f80:128-n8:16:32:64-S128"
target triple = "x86_64-pc-linux-gnu"

%struct.PROV_KDF_CTX = type { ptr, ptr, ptr }

@.str.1 = private unnamed_addr constant [57 x i8] c"../openssl/providers/implementations/exchange/kdf_exch.c\00", align 1

; Function Attrs: nounwind uwtable
define internal ptr @kdf_dupctx(ptr noundef %0) #0 {
  %2 = alloca ptr, align 8
  %3 = alloca ptr, align 8
  %4 = alloca ptr, align 8
  %5 = alloca ptr, align 8
  %6 = alloca i32, align 4
  store ptr %0, ptr %3, align 8, !tbaa !3
  call void @llvm.lifetime.start.p0(i64 8, ptr %4) #4
  %7 = load ptr, ptr %3, align 8, !tbaa !3
  store ptr %7, ptr %4, align 8, !tbaa !3
  call void @llvm.lifetime.start.p0(i64 8, ptr %5) #4
  %8 = call i32 @ossl_prov_is_running()
  %9 = icmp ne i32 %8, 0
  br i1 %9, label %11, label %10

10:                                               ; preds = %1
  store ptr null, ptr %2, align 8
  store i32 1, ptr %6, align 4
  br label %44

11:                                               ; preds = %1
  %12 = call noalias ptr @CRYPTO_zalloc(i64 noundef 24, ptr noundef @.str.1, i32 noundef 149)
  store ptr %12, ptr %5, align 8, !tbaa !3
  %13 = load ptr, ptr %5, align 8, !tbaa !3
  %14 = icmp eq ptr %13, null
  br i1 %14, label %15, label %16

15:                                               ; preds = %11
  store ptr null, ptr %2, align 8
  store i32 1, ptr %6, align 4
  br label %44

16:                                               ; preds = %11
  %17 = load ptr, ptr %5, align 8, !tbaa !3
  %18 = load ptr, ptr %4, align 8, !tbaa !3
  call void @llvm.memcpy.p0.p0.i64(ptr align 8 %17, ptr align 8 %18, i64 24, i1 false), !tbaa.struct !22
  %19 = load ptr, ptr %4, align 8, !tbaa !3
  %20 = getelementptr inbounds nuw %struct.PROV_KDF_CTX, ptr %19, i32 0, i32 1
  %21 = load ptr, ptr %20, align 8, !tbaa !19
  %22 = call ptr @EVP_KDF_CTX_dup(ptr noundef %21)
  %23 = load ptr, ptr %5, align 8, !tbaa !3
  %24 = getelementptr inbounds nuw %struct.PROV_KDF_CTX, ptr %23, i32 0, i32 1
  store ptr %22, ptr %24, align 8, !tbaa !19
  %25 = load ptr, ptr %5, align 8, !tbaa !3
  %26 = getelementptr inbounds nuw %struct.PROV_KDF_CTX, ptr %25, i32 0, i32 1
  %27 = load ptr, ptr %26, align 8, !tbaa !19
  %28 = icmp eq ptr %27, null
  br i1 %28, label %29, label %31

29:                                               ; preds = %16
  %30 = load ptr, ptr %5, align 8, !tbaa !3
  call void @CRYPTO_free(ptr noundef %30, ptr noundef @.str.1, i32 noundef 157)
  store ptr null, ptr %2, align 8
  store i32 1, ptr %6, align 4
  br label %44

31:                                               ; preds = %16
  %32 = load ptr, ptr %5, align 8, !tbaa !3
  %33 = getelementptr inbounds nuw %struct.PROV_KDF_CTX, ptr %32, i32 0, i32 2
  %34 = load ptr, ptr %33, align 8, !tbaa !9
  %35 = call i32 @ossl_kdf_data_up_ref(ptr noundef %34)
  %36 = icmp ne i32 %35, 0
  br i1 %36, label %42, label %37

37:                                               ; preds = %31
  %38 = load ptr, ptr %5, align 8, !tbaa !3
  %39 = getelementptr inbounds nuw %struct.PROV_KDF_CTX, ptr %38, i32 0, i32 1
  %40 = load ptr, ptr %39, align 8, !tbaa !19
  call void @EVP_KDF_CTX_free(ptr noundef %40)
  %41 = load ptr, ptr %5, align 8, !tbaa !3
  call void @CRYPTO_free(ptr noundef %41, ptr noundef @.str.1, i32 noundef 162)
  store ptr null, ptr %2, align 8
  store i32 1, ptr %6, align 4
  br label %44

42:                                               ; preds = %31
  %43 = load ptr, ptr %5, align 8, !tbaa !3
  store ptr %43, ptr %2, align 8
  store i32 1, ptr %6, align 4
  br label %44

44:                                               ; preds = %42, %37, %29, %15, %10
  call void @llvm.lifetime.end.p0(i64 8, ptr %5) #4
  call void @llvm.lifetime.end.p0(i64 8, ptr %4) #4
  %45 = load ptr, ptr %2, align 8
  ret ptr %45
}