; Function Attrs: nounwind uwtable
define internal ptr @kdf_dupctx(ptr noundef readonly captures(none) %0) #0 {
  %2 = tail call i32 @ossl_prov_is_running() #3
  %.not = icmp eq i32 %2, 0
  br i1 %.not, label %18, label %3

3:                                                ; preds = %1
  %4 = tail call noalias ptr @CRYPTO_zalloc(i64 noundef 24, ptr noundef nonnull @.str.1, i32 noundef 149) #3
  %5 = icmp eq ptr %4, null
  br i1 %5, label %18, label %6

6:                                                ; preds = %3
  tail call void @llvm.memcpy.p0.p0.i64(ptr noundef nonnull align 8 dereferenceable(24) %4, ptr noundef nonnull align 8 dereferenceable(24) %0, i64 24, i1 false), !tbaa.struct !13
  %7 = getelementptr inbounds nuw i8, ptr %0, i64 8
  %8 = load ptr, ptr %7, align 8, !tbaa !10
  %9 = tail call ptr @EVP_KDF_CTX_dup(ptr noundef %8) #3
  %10 = getelementptr inbounds nuw i8, ptr %4, i64 8
  store ptr %9, ptr %10, align 8, !tbaa !10
  %11 = icmp eq ptr %9, null
  br i1 %11, label %.sink.split, label %12

12:                                               ; preds = %6
  %13 = getelementptr inbounds nuw i8, ptr %4, i64 16
  %14 = load ptr, ptr %13, align 8, !tbaa !3
  %15 = tail call i32 @ossl_kdf_data_up_ref(ptr noundef %14) #3
  %.not14 = icmp eq i32 %15, 0
  br i1 %.not14, label %16, label %18

16:                                               ; preds = %12
  %17 = load ptr, ptr %10, align 8, !tbaa !10
  tail call void @EVP_KDF_CTX_free(ptr noundef %17) #3
  br label %.sink.split

.sink.split:                                      ; preds = %6, %16
  %.sink = phi i32 [ 162, %16 ], [ 157, %6 ]
  tail call void @CRYPTO_free(ptr noundef nonnull %4, ptr noundef nonnull @.str.1, i32 noundef %.sink) #3
  br label %18

18:                                               ; preds = %.sink.split, %12, %3, %1
  %.0 = phi ptr [ null, %1 ], [ null, %3 ], [ %4, %12 ], [ null, %.sink.split ]
  ret ptr %.0
}